; Function Attrs: mustprogress uwtable
define void @_ZN14VrmlTranslator6Parser10ExpectWeakEii(ptr noundef nonnull align 8 captures(none) dereferenceable(208) %0, i32 noundef %1, i32 noundef %2) local_unnamed_addr #0 align 2 {
  %4 = getelementptr inbounds nuw i8, ptr %0, i64 48
  %5 = load ptr, ptr %4, align 8
  %6 = load i32, ptr %5, align 8
  %7 = icmp eq i32 %6, %1
  br i1 %7, label %8, label %9

8:                                                ; preds = %3
  tail call void @_ZN14VrmlTranslator6Parser3GetEv(ptr noundef nonnull align 8 dereferenceable(208) %0)
  br label %.loopexit

9:                                                ; preds = %3
  %10 = getelementptr inbounds nuw i8, ptr %0, i64 16
  %11 = load i32, ptr %10, align 8
  %12 = getelementptr inbounds nuw i8, ptr %0, i64 20
  %13 = load i32, ptr %12, align 4
  %.not.i = icmp slt i32 %11, %13
  br i1 %.not.i, label %_ZN14VrmlTranslator6Parser6SynErrEi.exit, label %14

14:                                               ; preds = %9
  %15 = getelementptr inbounds nuw i8, ptr %0, i64 32
  %16 = load ptr, ptr %15, align 8
  %17 = getelementptr inbounds nuw i8, ptr %5, i64 12
  %18 = load i32, ptr %17, align 4
  %19 = getelementptr inbounds nuw i8, ptr %5, i64 8
  %20 = load i32, ptr %19, align 8
  tail call void @_ZN14VrmlTranslator6Errors6SynErrEiii(ptr noundef nonnull align 8 dereferenceable(16) %16, i32 noundef %18, i32 noundef %20, i32 noundef %1)
  %.pre = load ptr, ptr %4, align 8
  br label %_ZN14VrmlTranslator6Parser6SynErrEi.exit

_ZN14VrmlTranslator6Parser6SynErrEi.exit:         ; preds = %9, %14
  %21 = phi ptr [ %5, %9 ], [ %.pre, %14 ]
  store i32 0, ptr %10, align 8
  %22 = sext i32 %2 to i64
  %23 = load i32, ptr %21, align 8
  %24 = sext i32 %23 to i64
  %25 = getelementptr inbounds [12 x [87 x i8]], ptr @_ZZN14VrmlTranslator6Parser7StartOfEiE3set, i64 0, i64 %22, i64 %24
  %26 = load i8, ptr %25, align 1
  %27 = trunc i8 %26 to i1
  br i1 %27, label %.loopexit, label %.lr.ph

.lr.ph:                                           ; preds = %_ZN14VrmlTranslator6Parser6SynErrEi.exit, %.lr.ph
  tail call void @_ZN14VrmlTranslator6Parser3GetEv(ptr noundef nonnull align 8 dereferenceable(208) %0)
  %28 = load ptr, ptr %4, align 8
  %29 = load i32, ptr %28, align 8
  %30 = sext i32 %29 to i64
  %31 = getelementptr inbounds [12 x [87 x i8]], ptr @_ZZN14VrmlTranslator6Parser7StartOfEiE3set, i64 0, i64 %22, i64 %30
  %32 = load i8, ptr %31, align 1
  %33 = trunc i8 %32 to i1
  br i1 %33, label %.loopexit, label %.lr.ph, !llvm.loop !7

.loopexit:                                        ; preds = %.lr.ph, %_ZN14VrmlTranslator6Parser6SynErrEi.exit, %8
  ret void
}